target datalayout = "e-m:e-p270:32:32-p271:32:32-p272:64:64-i64:64-f80:128-n8:16:32:64-S128"
target triple = "x86_64-pc-linux-gnu"

@.str = private unnamed_addr constant [3 x i8] c"%d\00", align 1
@.str.1 = private unnamed_addr constant [7 x i8] c"%d%d%d\00", align 1
@.str.2 = private unnamed_addr constant [29 x i8] c"(%d,%d,%d)-(%d,%d,%d)=%.2lf\0A\00", align 1

; Function Attrs: noinline nounwind uwtable
define dso_local i32 @main() #0 {
  %1 = alloca i32, align 4
  %2 = alloca i32, align 4
  %3 = alloca i32, align 4
  %4 = alloca i32, align 4
  %5 = alloca i32, align 4
  %6 = alloca i32, align 4
  %7 = alloca i32, align 4
  %8 = alloca double, align 8
  %9 = alloca [100 x i32], align 16
  %10 = alloca [100 x i32], align 16
  %11 = alloca [100 x i32], align 16
  %12 = alloca [100 x i32], align 16
  %13 = alloca [100 x i32], align 16
  %14 = alloca [100 x double], align 16
  store i32 0, i32* %1, align 4
  store i32 0, i32* %6, align 4
  %15 = call i32 (i8*, ...) @__isoc99_scanf(i8* getelementptr inbounds ([3 x i8], [3 x i8]* @.str, i64 0, i64 0), i32* %2)
  store i32 0, i32* %3, align 4
  br label %16

16:                                               ; preds = %31, %0
  %17 = load i32, i32* %3, align 4
  %18 = load i32, i32* %2, align 4
  %19 = icmp slt i32 %17, %18
  br i1 %19, label %20, label %34

20:                                               ; preds = %16
  %21 = load i32, i32* %3, align 4
  %22 = sext i32 %21 to i64
  %23 = getelementptr inbounds [100 x i32], [100 x i32]* %9, i64 0, i64 %22
  %24 = load i32, i32* %3, align 4
  %25 = sext i32 %24 to i64
  %26 = getelementptr inbounds [100 x i32], [100 x i32]* %10, i64 0, i64 %25
  %27 = load i32, i32* %3, align 4
  %28 = sext i32 %27 to i64
  %29 = getelementptr inbounds [100 x i32], [100 x i32]* %11, i64 0, i64 %28
  %30 = call i32 (i8*, ...) @__isoc99_scanf(i8* getelementptr inbounds ([7 x i8], [7 x i8]* @.str.1, i64 0, i64 0), i32* %23, i32* %26, i32* %29)
  br label %31

31:                                               ; preds = %20
  %32 = load i32, i32* %3, align 4
  %33 = add nsw i32 %32, 1
  store i32 %33, i32* %3, align 4
  br label %16

34:                                               ; preds = %16
  store i32 0, i32* %3, align 4
  br label %35

35:                                               ; preds = %89, %34
  %36 = load i32, i32* %3, align 4
  %37 = load i32, i32* %2, align 4
  %38 = icmp slt i32 %36, %37
  br i1 %38, label %39, label %92

39:                                               ; preds = %35
  %40 = load i32, i32* %3, align 4
  %41 = add nsw i32 %40, 1
  store i32 %41, i32* %4, align 4
  br label %42

42:                                               ; preds = %85, %39
  %43 = load i32, i32* %4, align 4
  %44 = load i32, i32* %2, align 4
  %45 = icmp slt i32 %43, %44
  br i1 %45, label %46, label %88

46:                                               ; preds = %42
  %47 = load i32, i32* %3, align 4
  %48 = sext i32 %47 to i64
  %49 = getelementptr inbounds [100 x i32], [100 x i32]* %9, i64 0, i64 %48
  %50 = load i32, i32* %49, align 4
  %51 = load i32, i32* %3, align 4
  %52 = sext i32 %51 to i64
  %53 = getelementptr inbounds [100 x i32], [100 x i32]* %10, i64 0, i64 %52
  %54 = load i32, i32* %53, align 4
  %55 = load i32, i32* %3, align 4
  %56 = sext i32 %55 to i64
  %57 = getelementptr inbounds [100 x i32], [100 x i32]* %11, i64 0, i64 %56
  %58 = load i32, i32* %57, align 4
  %59 = load i32, i32* %4, align 4
  %60 = sext i32 %59 to i64
  %61 = getelementptr inbounds [100 x i32], [100 x i32]* %9, i64 0, i64 %60
  %62 = load i32, i32* %61, align 4
  %63 = load i32, i32* %4, align 4
  %64 = sext i32 %63 to i64
  %65 = getelementptr inbounds [100 x i32], [100 x i32]* %10, i64 0, i64 %64
  %66 = load i32, i32* %65, align 4
  %67 = load i32, i32* %4, align 4
  %68 = sext i32 %67 to i64
  %69 = getelementptr inbounds [100 x i32], [100 x i32]* %11, i64 0, i64 %68
  %70 = load i32, i32* %69, align 4
  %71 = call double @juli(i32 %50, i32 %54, i32 %58, i32 %62, i32 %66, i32 %70)
  %72 = load i32, i32* %6, align 4
  %73 = sext i32 %72 to i64
  %74 = getelementptr inbounds [100 x double], [100 x double]* %14, i64 0, i64 %73
  store double %71, double* %74, align 8
  %75 = load i32, i32* %3, align 4
  %76 = load i32, i32* %6, align 4
  %77 = sext i32 %76 to i64
  %78 = getelementptr inbounds [100 x i32], [100 x i32]* %12, i64 0, i64 %77
  store i32 %75, i32* %78, align 4
  %79 = load i32, i32* %4, align 4
  %80 = load i32, i32* %6, align 4
  %81 = sext i32 %80 to i64
  %82 = getelementptr inbounds [100 x i32], [100 x i32]* %13, i64 0, i64 %81
  store i32 %79, i32* %82, align 4
  %83 = load i32, i32* %6, align 4
  %84 = add nsw i32 %83, 1
  store i32 %84, i32* %6, align 4
  br label %85

85:                                               ; preds = %46
  %86 = load i32, i32* %4, align 4
  %87 = add nsw i32 %86, 1
  store i32 %87, i32* %4, align 4
  br label %42

88:                                               ; preds = %42
  br label %89

89:                                               ; preds = %88
  %90 = load i32, i32* %3, align 4
  %91 = add nsw i32 %90, 1
  store i32 %91, i32* %3, align 4
  br label %35

92:                                               ; preds = %35
  %93 = load i32, i32* %2, align 4
  %94 = load i32, i32* %2, align 4
  %95 = sub nsw i32 %94, 1
  %96 = mul nsw i32 %93, %95
  %97 = sdiv i32 %96, 2
  store i32 %97, i32* %7, align 4
  store i32 1, i32* %5, align 4
  br label %98

98:                                               ; preds = %181, %92
  %99 = load i32, i32* %5, align 4
  %100 = load i32, i32* %7, align 4
  %101 = icmp sle i32 %99, %100
  br i1 %101, label %102, label %184

102:                                              ; preds = %98
  store i32 0, i32* %3, align 4
  br label %103

103:                                              ; preds = %177, %102
  %104 = load i32, i32* %3, align 4
  %105 = load i32, i32* %7, align 4
  %106 = load i32, i32* %5, align 4
  %107 = sub nsw i32 %105, %106
  %108 = icmp slt i32 %104, %107
  br i1 %108, label %109, label %180

109:                                              ; preds = %103
  %110 = load i32, i32* %3, align 4
  %111 = sext i32 %110 to i64
  %112 = getelementptr inbounds [100 x double], [100 x double]* %14, i64 0, i64 %111
  %113 = load double, double* %112, align 8
  %114 = load i32, i32* %3, align 4
  %115 = add nsw i32 %114, 1
  %116 = sext i32 %115 to i64
  %117 = getelementptr inbounds [100 x double], [100 x double]* %14, i64 0, i64 %116
  %118 = load double, double* %117, align 8
  %119 = fcmp olt double %113, %118
  br i1 %119, label %120, label %176

120:                                              ; preds = %109
  %121 = load i32, i32* %3, align 4
  %122 = add nsw i32 %121, 1
  %123 = sext i32 %122 to i64
  %124 = getelementptr inbounds [100 x double], [100 x double]* %14, i64 0, i64 %123
  %125 = load double, double* %124, align 8
  store double %125, double* %8, align 8
  %126 = load i32, i32* %3, align 4
  %127 = sext i32 %126 to i64
  %128 = getelementptr inbounds [100 x double], [100 x double]* %14, i64 0, i64 %127
  %129 = load double, double* %128, align 8
  %130 = load i32, i32* %3, align 4
  %131 = add nsw i32 %130, 1
  %132 = sext i32 %131 to i64
  %133 = getelementptr inbounds [100 x double], [100 x double]* %14, i64 0, i64 %132
  store double %129, double* %133, align 8
  %134 = load double, double* %8, align 8
  %135 = load i32, i32* %3, align 4
  %136 = sext i32 %135 to i64
  %137 = getelementptr inbounds [100 x double], [100 x double]* %14, i64 0, i64 %136
  store double %134, double* %137, align 8
  %138 = load i32, i32* %3, align 4
  %139 = add nsw i32 %138, 1
  %140 = sext i32 %139 to i64
  %141 = getelementptr inbounds [100 x i32], [100 x i32]* %12, i64 0, i64 %140
  %142 = load i32, i32* %141, align 4
  %143 = sitofp i32 %142 to double
  store double %143, double* %8, align 8
  %144 = load i32, i32* %3, align 4
  %145 = sext i32 %144 to i64
  %146 = getelementptr inbounds [100 x i32], [100 x i32]* %12, i64 0, i64 %145
  %147 = load i32, i32* %146, align 4
  %148 = load i32, i32* %3, align 4
  %149 = add nsw i32 %148, 1
  %150 = sext i32 %149 to i64
  %151 = getelementptr inbounds [100 x i32], [100 x i32]* %12, i64 0, i64 %150
  store i32 %147, i32* %151, align 4
  %152 = load double, double* %8, align 8
  %153 = fptosi double %152 to i32
  %154 = load i32, i32* %3, align 4
  %155 = sext i32 %154 to i64
  %156 = getelementptr inbounds [100 x i32], [100 x i32]* %12, i64 0, i64 %155
  store i32 %153, i32* %156, align 4
  %157 = load i32, i32* %3, align 4
  %158 = add nsw i32 %157, 1
  %159 = sext i32 %158 to i64
  %160 = getelementptr inbounds [100 x i32], [100 x i32]* %13, i64 0, i64 %159
  %161 = load i32, i32* %160, align 4
  %162 = sitofp i32 %161 to double
  store double %162, double* %8, align 8
  %163 = load i32, i32* %3, align 4
  %164 = sext i32 %163 to i64
  %165 = getelementptr inbounds [100 x i32], [100 x i32]* %13, i64 0, i64 %164
  %166 = load i32, i32* %165, align 4
  %167 = load i32, i32* %3, align 4
  %168 = add nsw i32 %167, 1
  %169 = sext i32 %168 to i64
  %170 = getelementptr inbounds [100 x i32], [100 x i32]* %13, i64 0, i64 %169
  store i32 %166, i32* %170, align 4
  %171 = load double, double* %8, align 8
  %172 = fptosi double %171 to i32
  %173 = load i32, i32* %3, align 4
  %174 = sext i32 %173 to i64
  %175 = getelementptr inbounds [100 x i32], [100 x i32]* %13, i64 0, i64 %174
  store i32 %172, i32* %175, align 4
  br label %176

176:                                              ; preds = %120, %109
  br label %177

177:                                              ; preds = %176
  %178 = load i32, i32* %3, align 4
  %179 = add nsw i32 %178, 1
  store i32 %179, i32* %3, align 4
  br label %103

180:                                              ; preds = %103
  br label %181

181:                                              ; preds = %180
  %182 = load i32, i32* %5, align 4
  %183 = add nsw i32 %182, 1
  store i32 %183, i32* %5, align 4
  br label %98

184:                                              ; preds = %98
  store i32 0, i32* %3, align 4
  br label %185

185:                                              ; preds = %237, %184
  %186 = load i32, i32* %3, align 4
  %187 = load i32, i32* %7, align 4
  %188 = icmp slt i32 %186, %187
  br i1 %188, label %189, label %240

189:                                              ; preds = %185
  %190 = load i32, i32* %3, align 4
  %191 = sext i32 %190 to i64
  %192 = getelementptr inbounds [100 x i32], [100 x i32]* %12, i64 0, i64 %191
  %193 = load i32, i32* %192, align 4
  %194 = sext i32 %193 to i64
  %195 = getelementptr inbounds [100 x i32], [100 x i32]* %9, i64 0, i64 %194
  %196 = load i32, i32* %195, align 4
  %197 = load i32, i32* %3, align 4
  %198 = sext i32 %197 to i64
  %199 = getelementptr inbounds [100 x i32], [100 x i32]* %12, i64 0, i64 %198
  %200 = load i32, i32* %199, align 4
  %201 = sext i32 %200 to i64
  %202 = getelementptr inbounds [100 x i32], [100 x i32]* %10, i64 0, i64 %201
  %203 = load i32, i32* %202, align 4
  %204 = load i32, i32* %3, align 4
  %205 = sext i32 %204 to i64
  %206 = getelementptr inbounds [100 x i32], [100 x i32]* %12, i64 0, i64 %205
  %207 = load i32, i32* %206, align 4
  %208 = sext i32 %207 to i64
  %209 = getelementptr inbounds [100 x i32], [100 x i32]* %11, i64 0, i64 %208
  %210 = load i32, i32* %209, align 4
  %211 = load i32, i32* %3, align 4
  %212 = sext i32 %211 to i64
  %213 = getelementptr inbounds [100 x i32], [100 x i32]* %13, i64 0, i64 %212
  %214 = load i32, i32* %213, align 4
  %215 = sext i32 %214 to i64
  %216 = getelementptr inbounds [100 x i32], [100 x i32]* %9, i64 0, i64 %215
  %217 = load i32, i32* %216, align 4
  %218 = load i32, i32* %3, align 4
  %219 = sext i32 %218 to i64
  %220 = getelementptr inbounds [100 x i32], [100 x i32]* %13, i64 0, i64 %219
  %221 = load i32, i32* %220, align 4
  %222 = sext i32 %221 to i64
  %223 = getelementptr inbounds [100 x i32], [100 x i32]* %10, i64 0, i64 %222
  %224 = load i32, i32* %223, align 4
  %225 = load i32, i32* %3, align 4
  %226 = sext i32 %225 to i64
  %227 = getelementptr inbounds [100 x i32], [100 x i32]* %13, i64 0, i64 %226
  %228 = load i32, i32* %227, align 4
  %229 = sext i32 %228 to i64
  %230 = getelementptr inbounds [100 x i32], [100 x i32]* %11, i64 0, i64 %229
  %231 = load i32, i32* %230, align 4
  %232 = load i32, i32* %3, align 4
  %233 = sext i32 %232 to i64
  %234 = getelementptr inbounds [100 x double], [100 x double]* %14, i64 0, i64 %233
  %235 = load double, double* %234, align 8
  %236 = call i32 (i8*, ...) @printf(i8* getelementptr inbounds ([29 x i8], [29 x i8]* @.str.2, i64 0, i64 0), i32 %196, i32 %203, i32 %210, i32 %217, i32 %224, i32 %231, double %235)
  br label %237

237:                                              ; preds = %189
  %238 = load i32, i32* %3, align 4
  %239 = add nsw i32 %238, 1
  store i32 %239, i32* %3, align 4
  br label %185

240:                                              ; preds = %185
  ret i32 0
}

; Function Attrs: noinline nounwind uwtable
define dso_local double @juli(i32 %0, i32 %1, i32 %2, i32 %3, i32 %4, i32 %5) #0 {
  %7 = alloca i32, align 4
  %8 = alloca i32, align 4
  %9 = alloca i32, align 4
  %10 = alloca i32, align 4
  %11 = alloca i32, align 4
  %12 = alloca i32, align 4
  %13 = alloca double, align 8
  store i32 %0, i32* %7, align 4
  store i32 %1, i32* %8, align 4
  store i32 %2, i32* %9, align 4
  store i32 %3, i32* %10, align 4
  store i32 %4, i32* %11, align 4
  store i32 %5, i32* %12, align 4
  %14 = load i32, i32* %10, align 4
  %15 = load i32, i32* %7, align 4
  %16 = sub nsw i32 %14, %15
  %17 = load i32, i32* %10, align 4
  %18 = load i32, i32* %7, align 4
  %19 = sub nsw i32 %17, %18
  %20 = mul nsw i32 %16, %19
  %21 = load i32, i32* %11, align 4
  %22 = load i32, i32* %8, align 4
  %23 = sub nsw i32 %21, %22
  %24 = load i32, i32* %11, align 4
  %25 = load i32, i32* %8, align 4
  %26 = sub nsw i32 %24, %25
  %27 = mul nsw i32 %23, %26
  %28 = add nsw i32 %20, %27
  %29 = load i32, i32* %12, align 4
  %30 = load i32, i32* %9, align 4
  %31 = sub nsw i32 %29, %30
  %32 = load i32, i32* %12, align 4
  %33 = load i32, i32* %9, align 4
  %34 = sub nsw i32 %32, %33
  %35 = mul nsw i32 %31, %34
  %36 = add nsw i32 %28, %35
  %37 = sitofp i32 %36 to double
  %38 = call double @sqrt(double %37) #3
  store double %38, double* %13, align 8
  %39 = load double, double* %13, align 8
  ret double %39
}